target datalayout = "e-m:e-p270:32:32-p271:32:32-p272:64:64-i64:64-i128:128-f80:128-n8:16:32:64-S128"
target triple = "x86_64-pc-linux-gnu"

%struct.Image = type { ptr, i32, i32, i32, i32 }
%struct.Texture = type { i32, i32, i32, i32, i32 }

@.str.78 = private unnamed_addr constant [41 x i8] c"IMAGE: Data is not valid to load texture\00", align 1

; Function Attrs: nounwind uwtable
define void @UnloadImage(ptr noundef byval(%struct.Image) align 8 %0) #0 {
  %2 = getelementptr inbounds nuw %struct.Image, ptr %0, i32 0, i32 0
  %3 = load ptr, ptr %2, align 8
  call void @free(ptr noundef %3) #19
  ret void
}

; Function Attrs: nounwind uwtable
define void @LoadTextureFromImage(ptr dead_on_unwind noalias writable sret(%struct.Texture) align 4 %0, ptr noundef byval(%struct.Image) align 8 %1) #0 {
  call void @llvm.memset.p0.i64(ptr align 4 %0, i8 0, i64 20, i1 false)
  %3 = getelementptr inbounds nuw %struct.Image, ptr %1, i32 0, i32 1
  %4 = load i32, ptr %3, align 8
  %5 = icmp ne i32 %4, 0
  br i1 %5, label %6, label %23

6:                                                ; preds = %2
  %7 = getelementptr inbounds nuw %struct.Image, ptr %1, i32 0, i32 2
  %8 = load i32, ptr %7, align 4
  %9 = icmp ne i32 %8, 0
  br i1 %9, label %10, label %23

10:                                               ; preds = %6
  %11 = getelementptr inbounds nuw %struct.Image, ptr %1, i32 0, i32 0
  %12 = load ptr, ptr %11, align 8
  %13 = getelementptr inbounds nuw %struct.Image, ptr %1, i32 0, i32 1
  %14 = load i32, ptr %13, align 8
  %15 = getelementptr inbounds nuw %struct.Image, ptr %1, i32 0, i32 2
  %16 = load i32, ptr %15, align 4
  %17 = getelementptr inbounds nuw %struct.Image, ptr %1, i32 0, i32 4
  %18 = load i32, ptr %17, align 4
  %19 = getelementptr inbounds nuw %struct.Image, ptr %1, i32 0, i32 3
  %20 = load i32, ptr %19, align 8
  %21 = call i32 @rlLoadTexture(ptr noundef %12, i32 noundef %14, i32 noundef %16, i32 noundef %18, i32 noundef %20)
  %22 = getelementptr inbounds nuw %struct.Texture, ptr %0, i32 0, i32 0
  store i32 %21, ptr %22, align 4
  br label %24

23:                                               ; preds = %6, %2
  call void (i32, ptr, ...) @TraceLog(i32 noundef 4, ptr noundef @.str.78)
  br label %24

24:                                               ; preds = %23, %10
  %25 = getelementptr inbounds nuw %struct.Image, ptr %1, i32 0, i32 1
  %26 = load i32, ptr %25, align 8
  %27 = getelementptr inbounds nuw %struct.Texture, ptr %0, i32 0, i32 1
  store i32 %26, ptr %27, align 4
  %28 = getelementptr inbounds nuw %struct.Image, ptr %1, i32 0, i32 2
  %29 = load i32, ptr %28, align 4
  %30 = getelementptr inbounds nuw %struct.Texture, ptr %0, i32 0, i32 2
  store i32 %29, ptr %30, align 4
  %31 = getelementptr inbounds nuw %struct.Image, ptr %1, i32 0, i32 3
  %32 = load i32, ptr %31, align 8
  %33 = getelementptr inbounds nuw %struct.Texture, ptr %0, i32 0, i32 3
  store i32 %32, ptr %33, align 4
  %34 = getelementptr inbounds nuw %struct.Image, ptr %1, i32 0, i32 4
  %35 = load i32, ptr %34, align 4
  %36 = getelementptr inbounds nuw %struct.Texture, ptr %0, i32 0, i32 4
  store i32 %35, ptr %36, align 4
  ret void
}

; Function Attrs: nounwind uwtable
define void @LoadImage(ptr dead_on_unwind noalias writable sret(%struct.Image) align 8 %0, ptr noundef %1) #0 {
  %3 = alloca ptr, align 8
  %4 = alloca i32, align 4
  %5 = alloca ptr, align 8
  %6 = alloca %struct.Image, align 8
  store ptr %1, ptr %3, align 8
  call void @llvm.memset.p0.i64(ptr align 8 %0, i8 0, i64 24, i1 false)
  call void @llvm.lifetime.start.p0(i64 4, ptr %4) #19
  store i32 0, ptr %4, align 4
  call void @llvm.lifetime.start.p0(i64 8, ptr %5) #19
  %7 = load ptr, ptr %3, align 8
  %8 = call ptr @LoadFileData(ptr noundef %7, ptr noundef %4)
  store ptr %8, ptr %5, align 8
  %9 = load ptr, ptr %5, align 8
  %10 = icmp ne ptr %9, null
  br i1 %10, label %11, label %17

11:                                               ; preds = %2
  call void @llvm.lifetime.start.p0(i64 24, ptr %6) #19
  %12 = load ptr, ptr %3, align 8
  %13 = call ptr @GetFileExtension(ptr noundef %12)
  %14 = load ptr, ptr %5, align 8
  %15 = load i32, ptr %4, align 4
  call void @LoadImageFromMemory(ptr dead_on_unwind writable sret(%struct.Image) align 8 %6, ptr noundef %13, ptr noundef %14, i32 noundef %15)
  call void @llvm.memcpy.p0.p0.i64(ptr align 8 %0, ptr align 8 %6, i64 24, i1 false)
  call void @llvm.lifetime.end.p0(i64 24, ptr %6) #19
  %16 = load ptr, ptr %5, align 8
  call void @UnloadFileData(ptr noundef %16)
  br label %17

17:                                               ; preds = %11, %2
  call void @llvm.lifetime.end.p0(i64 8, ptr %5) #19
  call void @llvm.lifetime.end.p0(i64 4, ptr %4) #19
  ret void
}

; Function Attrs: nounwind uwtable
define void @LoadTexture(ptr dead_on_unwind noalias writable sret(%struct.Texture) align 4 %0, ptr noundef %1) #0 {
  %3 = alloca ptr, align 8
  %4 = alloca %struct.Image, align 8
  %5 = alloca %struct.Texture, align 4
  store ptr %1, ptr %3, align 8
  call void @llvm.memset.p0.i64(ptr align 4 %0, i8 0, i64 20, i1 false)
  call void @llvm.lifetime.start.p0(i64 24, ptr %4) #19
  %6 = load ptr, ptr %3, align 8
  call void @LoadImage(ptr dead_on_unwind writable sret(%struct.Image) align 8 %4, ptr noundef %6)
  %7 = getelementptr inbounds nuw %struct.Image, ptr %4, i32 0, i32 0
  %8 = load ptr, ptr %7, align 8
  %9 = icmp ne ptr %8, null
  br i1 %9, label %10, label %11

10:                                               ; preds = %2
  call void @llvm.lifetime.start.p0(i64 20, ptr %5) #19
  call void @LoadTextureFromImage(ptr dead_on_unwind writable sret(%struct.Texture) align 4 %5, ptr noundef byval(%struct.Image) align 8 %4)
  call void @llvm.memcpy.p0.p0.i64(ptr align 4 %0, ptr align 4 %5, i64 20, i1 false)
  call void @llvm.lifetime.end.p0(i64 20, ptr %5) #19
  call void @UnloadImage(ptr noundef byval(%struct.Image) align 8 %4)
  br label %11

11:                                               ; preds = %10, %2
  call void @llvm.lifetime.end.p0(i64 24, ptr %4) #19
  ret void
}