; Function Attrs: nounwind uwtable
define void @LoadTexture(ptr dead_on_unwind noalias writable writeonly sret(%struct.Texture) align 4 captures(none) initializes((0, 20)) %0, ptr noundef %1) local_unnamed_addr #4 {
  %3 = alloca i32, align 4
  %4 = alloca %struct.Image, align 8
  tail call void @llvm.memset.p0.i64(ptr noundef nonnull align 4 dereferenceable(20) %0, i8 0, i64 20, i1 false)
  call void @llvm.lifetime.start.p0(i64 24, ptr nonnull %4) #54
  call void @llvm.lifetime.start.p0(i64 4, ptr nonnull %3) #54, !noalias !18
  store i32 0, ptr %3, align 4, !noalias !18
  %5 = call ptr @LoadFileData(ptr noundef %1, ptr noundef nonnull %3) #54, !noalias !18
  %.not.i = icmp eq ptr %5, null
  br i1 %.not.i, label %LoadImage.exit.thread, label %LoadImage.exit

LoadImage.exit.thread:                            ; preds = %2
  call void @llvm.lifetime.end.p0(i64 4, ptr nonnull %3) #54, !noalias !18
  br label %14

LoadImage.exit:                                   ; preds = %2
  %6 = call ptr @GetFileExtension(ptr noundef %1) #54, !noalias !18
  %7 = load i32, ptr %3, align 4, !noalias !18
  call void @LoadImageFromMemory(ptr dead_on_unwind nonnull writable sret(%struct.Image) align 8 %4, ptr noundef %6, ptr noundef nonnull %5, i32 noundef %7)
  call void @UnloadFileData(ptr noundef nonnull %5) #54, !noalias !18
  %.pr = load ptr, ptr %4, align 8
  call void @llvm.lifetime.end.p0(i64 4, ptr nonnull %3) #54, !noalias !18
  %.not = icmp eq ptr %.pr, null
  br i1 %.not, label %14, label %8

8:                                                ; preds = %LoadImage.exit
  %.sroa.4.0..sroa_idx = getelementptr inbounds nuw i8, ptr %4, i64 8
  %.sroa.4.0.copyload = load i32, ptr %.sroa.4.0..sroa_idx, align 8
  %.sroa.52.0..sroa_idx = getelementptr inbounds nuw i8, ptr %4, i64 12
  %.sroa.52.0.copyload = load i32, ptr %.sroa.52.0..sroa_idx, align 4
  %.sroa.63.0..sroa_idx = getelementptr inbounds nuw i8, ptr %4, i64 16
  %.sroa.63.0.copyload = load i32, ptr %.sroa.63.0..sroa_idx, align 8
  %.sroa.84.0..sroa_idx = getelementptr inbounds nuw i8, ptr %4, i64 20
  %.sroa.84.0.copyload = load i32, ptr %.sroa.84.0..sroa_idx, align 4
  %9 = icmp ne i32 %.sroa.4.0.copyload, 0
  %10 = icmp ne i32 %.sroa.52.0.copyload, 0
  %or.cond.i = select i1 %9, i1 %10, i1 false
  br i1 %or.cond.i, label %11, label %13

11:                                               ; preds = %8
  %12 = call i32 @rlLoadTexture(ptr noundef nonnull %.pr, i32 noundef %.sroa.4.0.copyload, i32 noundef %.sroa.52.0.copyload, i32 noundef %.sroa.84.0.copyload, i32 noundef %.sroa.63.0.copyload) #54, !noalias !21
  br label %LoadTextureFromImage.exit

13:                                               ; preds = %8
  call void (i32, ptr, ...) @TraceLog(i32 noundef 4, ptr noundef nonnull @.str.78) #54, !noalias !21
  br label %LoadTextureFromImage.exit

LoadTextureFromImage.exit:                        ; preds = %11, %13
  %.sroa.0.0 = phi i32 [ %12, %11 ], [ 0, %13 ]
  store i32 %.sroa.0.0, ptr %0, align 4
  %.sroa.5.0..sroa_idx = getelementptr inbounds nuw i8, ptr %0, i64 4
  store i32 %.sroa.4.0.copyload, ptr %.sroa.5.0..sroa_idx, align 4
  %.sroa.6.0..sroa_idx = getelementptr inbounds nuw i8, ptr %0, i64 8
  store i32 %.sroa.52.0.copyload, ptr %.sroa.6.0..sroa_idx, align 4
  %.sroa.7.0..sroa_idx = getelementptr inbounds nuw i8, ptr %0, i64 12
  store i32 %.sroa.63.0.copyload, ptr %.sroa.7.0..sroa_idx, align 4
  %.sroa.8.0..sroa_idx = getelementptr inbounds nuw i8, ptr %0, i64 16
  store i32 %.sroa.84.0.copyload, ptr %.sroa.8.0..sroa_idx, align 4
  call void @free(ptr noundef nonnull %.pr) #54
  br label %14

14:                                               ; preds = %LoadImage.exit.thread, %LoadTextureFromImage.exit, %LoadImage.exit
  call void @llvm.lifetime.end.p0(i64 24, ptr nonnull %4) #54
  ret void
}